; Function Attrs: nounwind uwtable
define ptr @l_Lean_Compiler_LCNF_mkDeclExt___lambda__3(ptr noundef %0) #1 {
lean_nat_eq.exit:
  %1 = tail call ptr @lean_array_mk(ptr noundef %0) #6
  %2 = getelementptr i8, ptr %1, i64 8
  %.val = load i64, ptr %2, align 8, !tbaa !14
  %3 = shl i64 %.val, 1
  %.not = icmp eq i64 %3, 0
  br i1 %.not, label %lean_dec.exit31, label %lean_nat_le.exit

lean_nat_le.exit:                                 ; preds = %lean_nat_eq.exit
  %4 = and i64 %.val, 9223372036854775807
  %5 = icmp eq i64 %4, 0
  %6 = add i64 %3, -1
  %7 = inttoptr i64 %6 to ptr
  %.1.i = select i1 %5, ptr inttoptr (i64 1 to ptr), ptr %7
  %8 = or disjoint i64 %3, 1
  %9 = inttoptr i64 %8 to ptr
  %10 = tail call ptr @l_Array_qsort_sort___at___private_Lean_Compiler_LCNF_PhaseExt_0__Lean_Compiler_LCNF_sortDecls___spec__1(ptr noundef nonnull %9, ptr noundef nonnull %1, ptr noundef nonnull inttoptr (i64 1 to ptr), ptr noundef nonnull %.1.i, ptr nonnull poison, ptr nonnull poison)
  br label %lean_dec.exit31

lean_dec.exit31:                                  ; preds = %lean_nat_eq.exit, %lean_nat_le.exit
  %.1 = phi ptr [ %10, %lean_nat_le.exit ], [ %1, %lean_nat_eq.exit ]
  ret ptr %.1
}